; Function Attrs: nounwind uwtable
define dso_local void @_PyRWMutex_Lock(ptr noundef %0) local_unnamed_addr #0 {
  %2 = alloca i64, align 8
  %3 = load atomic i64, ptr %0 monotonic, align 8
  br label %.backedge

.backedge:                                        ; preds = %.backedge.backedge, %1
  %.0 = phi i64 [ %3, %1 ], [ %.0.be, %.backedge.backedge ]
  %4 = and i64 %.0, -3
  %5 = icmp eq i64 %4, 0
  br i1 %5, label %6, label %12

6:                                                ; preds = %.backedge
  %7 = or disjoint i64 %.0, 1
  %8 = cmpxchg ptr %0, i64 %.0, i64 %7 seq_cst seq_cst, align 8
  %9 = extractvalue { i64, i1 } %8, 1
  br i1 %9, label %11, label %_Py_atomic_compare_exchange_uintptr.exit

_Py_atomic_compare_exchange_uintptr.exit:         ; preds = %6
  %10 = extractvalue { i64, i1 } %8, 0
  br label %.backedge.backedge

11:                                               ; preds = %6
  ret void

12:                                               ; preds = %.backedge
  call void @llvm.lifetime.start.p0(i64 8, ptr nonnull %2)
  store i64 %.0, ptr %2, align 8, !tbaa !4
  %13 = and i64 %.0, 2
  %14 = icmp eq i64 %13, 0
  br i1 %14, label %15, label %21

15:                                               ; preds = %12
  %16 = or disjoint i64 %.0, 2
  %17 = cmpxchg ptr %0, i64 %.0, i64 %16 seq_cst seq_cst, align 8
  %18 = extractvalue { i64, i1 } %17, 1
  br i1 %18, label %.thread.i, label %19

.thread.i:                                        ; preds = %15
  store i64 %16, ptr %2, align 8, !tbaa !4
  br label %21

19:                                               ; preds = %15
  %20 = extractvalue { i64, i1 } %17, 0
  br label %rwmutex_set_parked_and_wait.exit

21:                                               ; preds = %.thread.i, %12
  %22 = call i32 @_PyParkingLot_Park(ptr noundef nonnull %0, ptr noundef nonnull %2, i64 noundef 8, i64 noundef -1, ptr noundef null, i32 noundef 1) #8
  %23 = load atomic i64, ptr %0 monotonic, align 8
  br label %rwmutex_set_parked_and_wait.exit

rwmutex_set_parked_and_wait.exit:                 ; preds = %19, %21
  %.1.i = phi i64 [ %20, %19 ], [ %23, %21 ]
  call void @llvm.lifetime.end.p0(i64 8, ptr nonnull %2)
  br label %.backedge.backedge

.backedge.backedge:                               ; preds = %rwmutex_set_parked_and_wait.exit, %_Py_atomic_compare_exchange_uintptr.exit
  %.0.be = phi i64 [ %10, %_Py_atomic_compare_exchange_uintptr.exit ], [ %.1.i, %rwmutex_set_parked_and_wait.exit ]
  br label %.backedge
}